target datalayout = "e-m:e-p270:32:32-p271:32:32-p272:64:64-i64:64-i128:128-f80:128-n8:16:32:64-S128"
target triple = "x86_64-pc-linux-gnu"

%struct.client_conn_tag = type { i32, ptr, i32, i32, ptr, ptr, ptr, i64, i8, ptr, i32, i64, ptr, i32 }

@.str.3 = private unnamed_addr constant [13 x i8] c"%u: %s: %s%c\00", align 1
@.str.4 = private unnamed_addr constant [9 x i8] c"%u: %s%c\00", align 1
@.str.5 = private unnamed_addr constant [9 x i8] c"%s: %s%c\00", align 1
@.str.6 = private unnamed_addr constant [5 x i8] c"%s%c\00", align 1

; Function Attrs: nounwind uwtable
define dso_local i32 @conn_reply_single(ptr noundef %0, ptr noundef %1, ptr noundef %2) #0 {
  %4 = alloca i32, align 4
  %5 = alloca ptr, align 8
  %6 = alloca ptr, align 8
  %7 = alloca ptr, align 8
  store ptr %0, ptr %5, align 8, !tbaa !22
  store ptr %1, ptr %6, align 8, !tbaa !4
  store ptr %2, ptr %7, align 8, !tbaa !4
  %8 = load ptr, ptr %5, align 8, !tbaa !22
  %9 = getelementptr inbounds nuw %struct.client_conn_tag, ptr %8, i32 0, i32 10
  %10 = load i32, ptr %9, align 8, !tbaa !24
  %11 = icmp ne i32 %10, 0
  br i1 %11, label %12, label %42

12:                                               ; preds = %3
  %13 = load ptr, ptr %6, align 8, !tbaa !4
  %14 = icmp ne ptr %13, null
  br i1 %14, label %15, label %29

15:                                               ; preds = %12
  %16 = load ptr, ptr %5, align 8, !tbaa !22
  %17 = getelementptr inbounds nuw %struct.client_conn_tag, ptr %16, i32 0, i32 3
  %18 = load i32, ptr %17, align 4, !tbaa !31
  %19 = load ptr, ptr %5, align 8, !tbaa !22
  %20 = getelementptr inbounds nuw %struct.client_conn_tag, ptr %19, i32 0, i32 10
  %21 = load i32, ptr %20, align 8, !tbaa !24
  %22 = load ptr, ptr %6, align 8, !tbaa !4
  %23 = load ptr, ptr %7, align 8, !tbaa !4
  %24 = load ptr, ptr %5, align 8, !tbaa !22
  %25 = getelementptr inbounds nuw %struct.client_conn_tag, ptr %24, i32 0, i32 8
  %26 = load i8, ptr %25, align 8, !tbaa !32
  %27 = sext i8 %26 to i32
  %28 = call i32 (i32, ptr, ...) @mdprintf(i32 noundef %18, ptr noundef @.str.3, i32 noundef %21, ptr noundef %22, ptr noundef %23, i32 noundef %27)
  store i32 %28, ptr %4, align 4
  br label %66

29:                                               ; preds = %12
  %30 = load ptr, ptr %5, align 8, !tbaa !22
  %31 = getelementptr inbounds nuw %struct.client_conn_tag, ptr %30, i32 0, i32 3
  %32 = load i32, ptr %31, align 4, !tbaa !31
  %33 = load ptr, ptr %5, align 8, !tbaa !22
  %34 = getelementptr inbounds nuw %struct.client_conn_tag, ptr %33, i32 0, i32 10
  %35 = load i32, ptr %34, align 8, !tbaa !24
  %36 = load ptr, ptr %7, align 8, !tbaa !4
  %37 = load ptr, ptr %5, align 8, !tbaa !22
  %38 = getelementptr inbounds nuw %struct.client_conn_tag, ptr %37, i32 0, i32 8
  %39 = load i8, ptr %38, align 8, !tbaa !32
  %40 = sext i8 %39 to i32
  %41 = call i32 (i32, ptr, ...) @mdprintf(i32 noundef %32, ptr noundef @.str.4, i32 noundef %35, ptr noundef %36, i32 noundef %40)
  store i32 %41, ptr %4, align 4
  br label %66

42:                                               ; preds = %3
  %43 = load ptr, ptr %6, align 8, !tbaa !4
  %44 = icmp ne ptr %43, null
  br i1 %44, label %45, label %56

45:                                               ; preds = %42
  %46 = load ptr, ptr %5, align 8, !tbaa !22
  %47 = getelementptr inbounds nuw %struct.client_conn_tag, ptr %46, i32 0, i32 3
  %48 = load i32, ptr %47, align 4, !tbaa !31
  %49 = load ptr, ptr %6, align 8, !tbaa !4
  %50 = load ptr, ptr %7, align 8, !tbaa !4
  %51 = load ptr, ptr %5, align 8, !tbaa !22
  %52 = getelementptr inbounds nuw %struct.client_conn_tag, ptr %51, i32 0, i32 8
  %53 = load i8, ptr %52, align 8, !tbaa !32
  %54 = sext i8 %53 to i32
  %55 = call i32 (i32, ptr, ...) @mdprintf(i32 noundef %48, ptr noundef @.str.5, ptr noundef %49, ptr noundef %50, i32 noundef %54)
  store i32 %55, ptr %4, align 4
  br label %66

56:                                               ; preds = %42
  %57 = load ptr, ptr %5, align 8, !tbaa !22
  %58 = getelementptr inbounds nuw %struct.client_conn_tag, ptr %57, i32 0, i32 3
  %59 = load i32, ptr %58, align 4, !tbaa !31
  %60 = load ptr, ptr %7, align 8, !tbaa !4
  %61 = load ptr, ptr %5, align 8, !tbaa !22
  %62 = getelementptr inbounds nuw %struct.client_conn_tag, ptr %61, i32 0, i32 8
  %63 = load i8, ptr %62, align 8, !tbaa !32
  %64 = sext i8 %63 to i32
  %65 = call i32 (i32, ptr, ...) @mdprintf(i32 noundef %59, ptr noundef @.str.6, ptr noundef %60, i32 noundef %64)
  store i32 %65, ptr %4, align 4
  br label %66

66:                                               ; preds = %56, %45, %29, %15
  %67 = load i32, ptr %4, align 4
  ret i32 %67
}