; Function Attrs: nounwind uwtable
define dso_local i32 @conn_reply_single(ptr noundef readonly captures(none) %0, ptr noundef %1, ptr noundef %2) local_unnamed_addr #0 {
  %4 = getelementptr inbounds nuw i8, ptr %0, i64 72
  %5 = load i32, ptr %4, align 8, !tbaa !18
  %.not = icmp eq i32 %5, 0
  %.not21 = icmp eq ptr %1, null
  %6 = getelementptr inbounds nuw i8, ptr %0, i64 20
  %7 = load i32, ptr %6, align 4, !tbaa !25
  %8 = getelementptr inbounds nuw i8, ptr %0, i64 56
  %9 = load i8, ptr %8, align 8, !tbaa !26
  %10 = sext i8 %9 to i32
  br i1 %.not, label %16, label %11

11:                                               ; preds = %3
  br i1 %.not21, label %14, label %12

12:                                               ; preds = %11
  %13 = tail call i32 (i32, ptr, ...) @mdprintf(i32 noundef %7, ptr noundef nonnull @.str.3, i32 noundef %5, ptr noundef nonnull %1, ptr noundef %2, i32 noundef %10) #14
  br label %21

14:                                               ; preds = %11
  %15 = tail call i32 (i32, ptr, ...) @mdprintf(i32 noundef %7, ptr noundef nonnull @.str.4, i32 noundef %5, ptr noundef %2, i32 noundef %10) #14
  br label %21

16:                                               ; preds = %3
  br i1 %.not21, label %19, label %17

17:                                               ; preds = %16
  %18 = tail call i32 (i32, ptr, ...) @mdprintf(i32 noundef %7, ptr noundef nonnull @.str.5, ptr noundef nonnull %1, ptr noundef %2, i32 noundef %10) #14
  br label %21

19:                                               ; preds = %16
  %20 = tail call i32 (i32, ptr, ...) @mdprintf(i32 noundef %7, ptr noundef nonnull @.str.6, ptr noundef %2, i32 noundef %10) #14
  br label %21

21:                                               ; preds = %19, %17, %14, %12
  %.0 = phi i32 [ %13, %12 ], [ %15, %14 ], [ %18, %17 ], [ %20, %19 ]
  ret i32 %.0
}